target datalayout = "e-m:e-p270:32:32-p271:32:32-p272:64:64-i64:64-i128:128-f80:128-n8:16:32:64-S128"
target triple = "x86_64-pc-linux-gnu"

%struct.KDF_ARGON2 = type { ptr, i32, ptr, i32, ptr, i32, ptr, i32, ptr, i32, i32, i32, i32, i32, i32, i32, i32, ptr, i32, i32, i32, i32, ptr, ptr, ptr, ptr }

@.str = private unnamed_addr constant [51 x i8] c"../openssl/providers/implementations/kdfs/argon2.c\00", align 1
@__func__.kdf_argon2_ctx_set_version = private unnamed_addr constant [27 x i8] c"kdf_argon2_ctx_set_version\00", align 1
@.str.29 = private unnamed_addr constant [23 x i8] c"invalid Argon2 version\00", align 1

; Function Attrs: nounwind uwtable
define internal i32 @kdf_argon2_ctx_set_version(ptr noundef %0, i32 noundef %1) #0 {
  %3 = alloca i32, align 4
  %4 = alloca ptr, align 8
  %5 = alloca i32, align 4
  store ptr %0, ptr %4, align 8, !tbaa !3
  store i32 %1, ptr %5, align 4, !tbaa !26
  %6 = load i32, ptr %5, align 4, !tbaa !26
  switch i32 %6, label %11 [
    i32 16, label %7
    i32 19, label %7
  ]

7:                                                ; preds = %2, %2
  %8 = load i32, ptr %5, align 4, !tbaa !26
  %9 = load ptr, ptr %4, align 8, !tbaa !3
  %10 = getelementptr inbounds nuw %struct.KDF_ARGON2, ptr %9, i32 0, i32 14
  store i32 %8, ptr %10, align 4, !tbaa !46
  store i32 1, ptr %3, align 4
  br label %12

11:                                               ; preds = %2
  call void @ERR_new()
  call void @ERR_set_debug(ptr noundef @.str, i32 noundef 1369, ptr noundef @__func__.kdf_argon2_ctx_set_version)
  call void (i32, i32, ptr, ...) @ERR_set_error(i32 noundef 57, i32 noundef 125, ptr noundef @.str.29)
  store i32 0, ptr %3, align 4
  br label %12

12:                                               ; preds = %11, %7
  %13 = load i32, ptr %3, align 4
  ret i32 %13
}