; Function Attrs: nounwind uwtable
define internal fastcc range(i32 0, 2) i32 @kdf_argon2_ctx_set_version(ptr noundef writeonly captures(none) %0, i32 noundef %1) unnamed_addr #0 {
  switch i32 %1, label %5 [
    i32 16, label %3
    i32 19, label %3
  ]

3:                                                ; preds = %2, %2
  %4 = getelementptr inbounds nuw i8, ptr %0, i64 92
  store i32 %1, ptr %4, align 4, !tbaa !18
  br label %6

5:                                                ; preds = %2
  tail call void @ERR_new() #10
  tail call void @ERR_set_debug(ptr noundef nonnull @.str, i32 noundef 1369, ptr noundef nonnull @__func__.kdf_argon2_ctx_set_version) #10
  tail call void (i32, i32, ptr, ...) @ERR_set_error(i32 noundef 57, i32 noundef 125, ptr noundef nonnull @.str.29) #10
  br label %6

6:                                                ; preds = %5, %3
  %.0 = phi i32 [ 0, %5 ], [ 1, %3 ]
  ret i32 %.0
}